; Function Attrs: mustprogress nounwind uwtable
define dso_local noundef ptr @_ZN4llvm14FoldingSetBase19FindNodeOrInsertPosERKNS_16FoldingSetNodeIDERPvRKNS0_14FoldingSetInfoE(ptr noundef nonnull align 8 dereferenceable(16) %0, ptr noundef nonnull align 8 dereferenceable(144) %1, ptr nocapture noundef nonnull writeonly align 8 dereferenceable(8) %2, ptr nocapture noundef nonnull readonly align 8 dereferenceable(24) %3) local_unnamed_addr #2 align 2 {
  %5 = alloca %"class.llvm::FoldingSetNodeID", align 8
  %6 = load ptr, ptr %1, align 8
  %7 = tail call noundef i64 @_ZNK4llvm15SmallVectorBaseIjE4sizeEv(ptr noundef nonnull align 8 dereferenceable(16) %1) #21
  %8 = getelementptr inbounds i32, ptr %6, i64 %7
  %9 = tail call i64 @_ZN4llvm7hashing6detail23hash_combine_range_implIKjEENSt9enable_ifIXsr16is_hashable_dataIT_EE5valueENS_9hash_codeEE4typeEPS5_S9_(ptr noundef %6, ptr noundef %8)
  %10 = trunc i64 %9 to i32
  %11 = load ptr, ptr %0, align 8
  %12 = getelementptr inbounds nuw i8, ptr %0, i64 8
  %13 = load i32, ptr %12, align 8
  %14 = add i32 %13, -1
  %15 = and i32 %14, %10
  %16 = zext i32 %15 to i64
  %17 = getelementptr inbounds ptr, ptr %11, i64 %16
  %18 = load ptr, ptr %17, align 8
  store ptr null, ptr %2, align 8
  %19 = getelementptr inbounds i8, ptr %5, i64 16
  call void @_ZN4llvm15SmallVectorBaseIjEC2EPvm(ptr noundef nonnull align 8 dereferenceable(16) %5, ptr noundef nonnull %19, i64 noundef 32) #21
  %20 = ptrtoint ptr %18 to i64
  %21 = and i64 %20, 1
  %.not.i19 = icmp ne i64 %21, 0
  %.not1720 = icmp eq ptr %18, null
  %.not21 = or i1 %.not1720, %.not.i19
  br i1 %.not21, label %._crit_edge, label %.lr.ph

.lr.ph:                                           ; preds = %4
  %22 = getelementptr inbounds nuw i8, ptr %3, i64 8
  %23 = getelementptr inbounds nuw i8, ptr %5, i64 8
  br label %24

24:                                               ; preds = %.lr.ph, %27
  %.01522 = phi ptr [ %18, %.lr.ph ], [ %29, %27 ]
  %25 = load ptr, ptr %22, align 8
  %26 = call noundef zeroext i1 %25(ptr noundef nonnull %0, ptr noundef nonnull %.01522, ptr noundef nonnull align 8 dereferenceable(144) %1, i32 noundef %10, ptr noundef nonnull align 8 dereferenceable(144) %5) #21
  br i1 %26, label %.loopexit, label %27

27:                                               ; preds = %24
  %28 = call noundef i64 @_ZNK4llvm15SmallVectorBaseIjE4sizeEv(ptr noundef nonnull align 8 dereferenceable(16) %5) #21
  store i32 0, ptr %23, align 8
  %29 = load ptr, ptr %.01522, align 8
  %30 = ptrtoint ptr %29 to i64
  %31 = and i64 %30, 1
  %.not.i = icmp ne i64 %31, 0
  %.not17 = icmp eq ptr %29, null
  %.not = or i1 %.not17, %.not.i
  br i1 %.not, label %._crit_edge, label %24, !llvm.loop !8

._crit_edge:                                      ; preds = %27, %4
  store ptr %17, ptr %2, align 8
  br label %.loopexit

.loopexit:                                        ; preds = %24, %._crit_edge
  %.0 = phi ptr [ null, %._crit_edge ], [ %.01522, %24 ]
  %32 = call noundef i64 @_ZNK4llvm15SmallVectorBaseIjE4sizeEv(ptr noundef nonnull align 8 dereferenceable(16) %5) #21
  %33 = load ptr, ptr %5, align 8
  %34 = icmp eq ptr %33, %19
  br i1 %34, label %_ZN4llvm16FoldingSetNodeIDD2Ev.exit, label %35

35:                                               ; preds = %.loopexit
  call void @free(ptr noundef %33) #21
  br label %_ZN4llvm16FoldingSetNodeIDD2Ev.exit

_ZN4llvm16FoldingSetNodeIDD2Ev.exit:              ; preds = %.loopexit, %35
  ret ptr %.0
}